target datalayout = "e-m:e-p270:32:32-p271:32:32-p272:64:64-i64:64-i128:128-f80:128-n8:16:32:64-S128"
target triple = "x86_64-pc-linux-gnu"

%struct.sp_int = type { i16, i16, [129 x i64] }

; Function Attrs: nounwind uwtable
define i32 @sp_mod(ptr noundef %0, ptr noundef %1, ptr noundef %2) #0 {
  %4 = alloca ptr, align 8
  %5 = alloca ptr, align 8
  %6 = alloca ptr, align 8
  %7 = alloca i32, align 4
  store ptr %0, ptr %4, align 8, !tbaa !3
  store ptr %1, ptr %5, align 8, !tbaa !3
  store ptr %2, ptr %6, align 8, !tbaa !3
  call void @llvm.lifetime.start.p0(i64 4, ptr %7) #8
  store i32 0, ptr %7, align 4, !tbaa !8
  %8 = load ptr, ptr %4, align 8, !tbaa !3
  %9 = icmp eq ptr %8, null
  br i1 %9, label %16, label %10

10:                                               ; preds = %3
  %11 = load ptr, ptr %5, align 8, !tbaa !3
  %12 = icmp eq ptr %11, null
  br i1 %12, label %16, label %13

13:                                               ; preds = %10
  %14 = load ptr, ptr %6, align 8, !tbaa !3
  %15 = icmp eq ptr %14, null
  br i1 %15, label %16, label %17

16:                                               ; preds = %13, %10, %3
  store i32 -98, ptr %7, align 4, !tbaa !8
  br label %25

17:                                               ; preds = %13
  %18 = load ptr, ptr %4, align 8, !tbaa !3
  %19 = getelementptr inbounds nuw %struct.sp_int, ptr %18, i32 0, i32 0
  %20 = load i16, ptr %19, align 8, !tbaa !15
  %21 = zext i16 %20 to i32
  %22 = icmp sge i32 %21, 129
  br i1 %22, label %23, label %24

23:                                               ; preds = %17
  store i32 -98, ptr %7, align 4, !tbaa !8
  br label %24

24:                                               ; preds = %23, %17
  br label %25

25:                                               ; preds = %24, %16
  %26 = load i32, ptr %7, align 4, !tbaa !8
  %27 = icmp eq i32 %26, 0
  br i1 %27, label %28, label %33

28:                                               ; preds = %25
  %29 = load ptr, ptr %4, align 8, !tbaa !3
  %30 = load ptr, ptr %5, align 8, !tbaa !3
  %31 = load ptr, ptr %6, align 8, !tbaa !3
  %32 = call i32 @sp_div(ptr noundef %29, ptr noundef %30, ptr noundef null, ptr noundef %31)
  store i32 %32, ptr %7, align 4, !tbaa !8
  br label %33

33:                                               ; preds = %28, %25
  %34 = load i32, ptr %7, align 4, !tbaa !8
  call void @llvm.lifetime.end.p0(i64 4, ptr %7) #8
  ret i32 %34
}

; Function Attrs: nounwind uwtable
define internal i32 @_sp_addmod(ptr noundef %0, ptr noundef %1, ptr noundef %2, ptr noundef %3) #0 {
  %5 = alloca ptr, align 8
  %6 = alloca ptr, align 8
  %7 = alloca ptr, align 8
  %8 = alloca ptr, align 8
  %9 = alloca i32, align 4
  %10 = alloca i16, align 2
  %11 = alloca ptr, align 8
  %12 = alloca i64, align 8
  %13 = alloca ptr, align 8
  store ptr %0, ptr %5, align 8, !tbaa !3
  store ptr %1, ptr %6, align 8, !tbaa !3
  store ptr %2, ptr %7, align 8, !tbaa !3
  store ptr %3, ptr %8, align 8, !tbaa !3
  call void @llvm.lifetime.start.p0(i64 4, ptr %9) #8
  store i32 0, ptr %9, align 4, !tbaa !8
  call void @llvm.lifetime.start.p0(i64 2, ptr %10) #8
  %14 = load ptr, ptr %5, align 8, !tbaa !3
  %15 = getelementptr inbounds nuw %struct.sp_int, ptr %14, i32 0, i32 0
  %16 = load i16, ptr %15, align 8, !tbaa !15
  %17 = zext i16 %16 to i32
  %18 = load ptr, ptr %6, align 8, !tbaa !3
  %19 = getelementptr inbounds nuw %struct.sp_int, ptr %18, i32 0, i32 0
  %20 = load i16, ptr %19, align 8, !tbaa !15
  %21 = zext i16 %20 to i32
  %22 = icmp sge i32 %17, %21
  br i1 %22, label %23, label %29

23:                                               ; preds = %4
  %24 = load ptr, ptr %5, align 8, !tbaa !3
  %25 = getelementptr inbounds nuw %struct.sp_int, ptr %24, i32 0, i32 0
  %26 = load i16, ptr %25, align 8, !tbaa !15
  %27 = zext i16 %26 to i32
  %28 = add i32 %27, 1
  br label %35

29:                                               ; preds = %4
  %30 = load ptr, ptr %6, align 8, !tbaa !3
  %31 = getelementptr inbounds nuw %struct.sp_int, ptr %30, i32 0, i32 0
  %32 = load i16, ptr %31, align 8, !tbaa !15
  %33 = zext i16 %32 to i32
  %34 = add i32 %33, 1
  br label %35

35:                                               ; preds = %29, %23
  %36 = phi i32 [ %28, %23 ], [ %34, %29 ]
  %37 = trunc i32 %36 to i16
  store i16 %37, ptr %10, align 2, !tbaa !32
  %38 = load i16, ptr %10, align 2, !tbaa !32
  %39 = zext i16 %38 to i32
  %40 = icmp sle i32 %39, 1
  br i1 %40, label %41, label %42

41:                                               ; preds = %35
  br label %47

42:                                               ; preds = %35
  %43 = load i16, ptr %10, align 2, !tbaa !32
  %44 = zext i16 %43 to i32
  %45 = sub nsw i32 %44, 1
  %46 = sext i32 %45 to i64
  br label %47

47:                                               ; preds = %42, %41
  %48 = phi i64 [ 0, %41 ], [ %46, %42 ]
  %49 = mul i64 %48, 8
  %50 = add i64 16, %49
  %51 = call ptr @llvm.stacksave.p0()
  store ptr %51, ptr %11, align 8
  %52 = alloca i8, i64 %50, align 16
  store i64 %50, ptr %12, align 8
  call void @llvm.lifetime.start.p0(i64 8, ptr %13) #8
  store ptr %52, ptr %13, align 8, !tbaa !3
  br label %53

53:                                               ; preds = %47
  br label %54

54:                                               ; preds = %53
  %55 = load i32, ptr %9, align 4, !tbaa !8
  %56 = icmp eq i32 %55, 0
  br i1 %56, label %57, label %62

57:                                               ; preds = %54
  %58 = load i16, ptr %10, align 2, !tbaa !32
  %59 = zext i16 %58 to i32
  %60 = icmp sgt i32 %59, 129
  br i1 %60, label %61, label %62

61:                                               ; preds = %57
  store i32 -98, ptr %9, align 4, !tbaa !8
  br label %62

62:                                               ; preds = %61, %57, %54
  br label %63

63:                                               ; preds = %62
  br label %64

64:                                               ; preds = %63
  %65 = load i32, ptr %9, align 4, !tbaa !8
  %66 = icmp eq i32 %65, 0
  br i1 %66, label %67, label %71

67:                                               ; preds = %64
  %68 = load i16, ptr %10, align 2, !tbaa !32
  %69 = load ptr, ptr %13, align 8, !tbaa !3
  %70 = getelementptr inbounds nuw %struct.sp_int, ptr %69, i32 0, i32 1
  store i16 %68, ptr %70, align 2, !tbaa !12
  br label %71

71:                                               ; preds = %67, %64
  br label %72

72:                                               ; preds = %71
  br label %73

73:                                               ; preds = %72
  %74 = load i32, ptr %9, align 4, !tbaa !8
  %75 = icmp eq i32 %74, 0
  br i1 %75, label %76, label %81

76:                                               ; preds = %73
  %77 = load ptr, ptr %5, align 8, !tbaa !3
  %78 = load ptr, ptr %6, align 8, !tbaa !3
  %79 = load ptr, ptr %13, align 8, !tbaa !3
  %80 = call i32 @sp_add(ptr noundef %77, ptr noundef %78, ptr noundef %79)
  store i32 %80, ptr %9, align 4, !tbaa !8
  br label %81

81:                                               ; preds = %76, %73
  %82 = load i32, ptr %9, align 4, !tbaa !8
  %83 = icmp eq i32 %82, 0
  br i1 %83, label %84, label %89

84:                                               ; preds = %81
  %85 = load ptr, ptr %13, align 8, !tbaa !3
  %86 = load ptr, ptr %7, align 8, !tbaa !3
  %87 = load ptr, ptr %8, align 8, !tbaa !3
  %88 = call i32 @sp_mod(ptr noundef %85, ptr noundef %86, ptr noundef %87)
  store i32 %88, ptr %9, align 4, !tbaa !8
  br label %89

89:                                               ; preds = %84, %81
  br label %90

90:                                               ; preds = %89
  br label %91

91:                                               ; preds = %90
  br label %92

92:                                               ; preds = %91
  %93 = load i32, ptr %9, align 4, !tbaa !8
  call void @llvm.lifetime.end.p0(i64 8, ptr %13) #8
  %94 = load ptr, ptr %11, align 8
  call void @llvm.stackrestore.p0(ptr %94)
  call void @llvm.lifetime.end.p0(i64 2, ptr %10) #8
  call void @llvm.lifetime.end.p0(i64 4, ptr %9) #8
  ret i32 %93
}