; Function Attrs: nofree norecurse nosync nounwind memory(readwrite, inaccessiblemem: none) uwtable
define internal fastcc range(i32 -98, 1) i32 @_sp_addmod(ptr noundef captures(address_is_null) %0, ptr noundef captures(address_is_null) %1, ptr noundef captures(address_is_null) %2, ptr noundef captures(address) %3) unnamed_addr #11 {
  %5 = load i16, ptr %0, align 8, !tbaa !12
  %6 = load i16, ptr %1, align 8, !tbaa !12
  %. = tail call i16 @llvm.umax.i16(i16 %5, i16 %6)
  %7 = add i16 %., 1
  %8 = zext i16 %7 to i64
  %9 = icmp ult i16 %7, 2
  %10 = shl nuw nsw i64 %8, 3
  %11 = add nuw nsw i64 %10, 8
  %12 = select i1 %9, i64 16, i64 %11
  %13 = alloca i8, i64 %12, align 16
  %14 = icmp ult i16 %7, 130
  br i1 %14, label %.critedge, label %sp_mod.exit

.critedge:                                        ; preds = %4
  %15 = getelementptr inbounds nuw i8, ptr %13, i64 2
  store i16 %7, ptr %15, align 2, !tbaa !10
  %16 = call i32 @sp_add(ptr noundef nonnull %0, ptr noundef nonnull %1, ptr noundef nonnull %13)
  %17 = icmp eq i32 %16, 0
  br i1 %17, label %18, label %sp_mod.exit

18:                                               ; preds = %.critedge
  %19 = icmp eq ptr %2, null
  %20 = icmp eq ptr %3, null
  %or.cond3.i = or i1 %19, %20
  br i1 %or.cond3.i, label %sp_mod.exit, label %21

21:                                               ; preds = %18
  %22 = load i16, ptr %13, align 16, !tbaa !12
  %23 = icmp ult i16 %22, 129
  br i1 %23, label %24, label %sp_mod.exit

24:                                               ; preds = %21
  %25 = call i32 @sp_div(ptr noundef nonnull %13, ptr noundef nonnull %2, ptr noundef null, ptr noundef nonnull %3)
  br label %sp_mod.exit

sp_mod.exit:                                      ; preds = %4, %24, %21, %18, %.critedge
  %.1 = phi i32 [ %16, %.critedge ], [ %25, %24 ], [ -98, %21 ], [ -98, %18 ], [ -98, %4 ]
  ret i32 %.1
}